target datalayout = "e-m:e-p270:32:32-p271:32:32-p272:64:64-i64:64-i128:128-f80:128-n8:16:32:64-S128"
target triple = "x86_64-pc-linux-gnu"

%struct._archiveHandle = type { %struct.Archive, i32, ptr, ptr, i64, i64, i32, %struct.sqlparseInfo, i64, i32, ptr, i64, i64, i64, ptr, ptr, ptr, ptr, ptr, ptr, ptr, ptr, ptr, ptr, ptr, ptr, ptr, ptr, ptr, ptr, ptr, ptr, ptr, ptr, ptr, ptr, ptr, ptr, ptr, ptr, ptr, ptr, ptr, ptr, i32, i32, i8, i32, i8, i32, ptr, ptr, ptr, ptr, i32, i32, ptr, ptr, ptr, %struct.pg_compress_specification, i8, i32, i32, ptr, ptr, ptr, ptr, ptr, i32, ptr, i64, i64, i32, i32, i32, i32, ptr, ptr }
%struct.Archive = type { ptr, ptr, i32, ptr, i32, i8, i32, i32, i32, ptr, i32, i8, ptr, ptr, i8, i32, ptr }
%struct.sqlparseInfo = type { i32, i8, ptr }
%struct.pg_compress_specification = type { i32, i32, i32, i32, i8, ptr }
%struct.lclContext = type { ptr, ptr, ptr, ptr }

@.str.18 = private unnamed_addr constant [30 x i8] c"could not close data file: %m\00", align 1

; Function Attrs: nounwind uwtable
define internal void @_EndData(ptr noundef %0, ptr noundef %1) #0 {
  %3 = alloca ptr, align 8
  %4 = alloca ptr, align 8
  %5 = alloca ptr, align 8
  store ptr %0, ptr %3, align 8
  store ptr %1, ptr %4, align 8
  call void @llvm.lifetime.start.p0(i64 8, ptr %5) #9
  %6 = load ptr, ptr %3, align 8
  %7 = getelementptr inbounds nuw %struct._archiveHandle, ptr %6, i32 0, i32 63
  %8 = load ptr, ptr %7, align 8
  store ptr %8, ptr %5, align 8
  %9 = load ptr, ptr %5, align 8
  %10 = getelementptr inbounds nuw %struct.lclContext, ptr %9, i32 0, i32 1
  %11 = load ptr, ptr %10, align 8
  %12 = call zeroext i1 @EndCompressFileHandle(ptr noundef %11)
  br i1 %12, label %17, label %13

13:                                               ; preds = %2
  br label %14

14:                                               ; preds = %13
  call void (i32, i32, ptr, ...) @pg_log_generic(i32 noundef 4, i32 noundef 0, ptr noundef @.str.18)
  call void @exit_nicely(i32 noundef 1) #11
  unreachable

15:                                               ; No predecessors!
  br label %16

16:                                               ; preds = %15
  br label %17

17:                                               ; preds = %16, %2
  %18 = load ptr, ptr %5, align 8
  %19 = getelementptr inbounds nuw %struct.lclContext, ptr %18, i32 0, i32 1
  store ptr null, ptr %19, align 8
  call void @llvm.lifetime.end.p0(i64 8, ptr %5) #9
  ret void
}